target datalayout = "e-m:e-p270:32:32-p271:32:32-p272:64:64-i64:64-i128:128-f80:128-n8:16:32:64-S128"
target triple = "x86_64-unknown-linux-gnu"

%struct.MemoryRegion = type { %struct.Object, i8, i8, i8, i8, i8, i8, i8, i8, i8, i8, ptr, ptr, ptr, ptr, ptr, ptr, i32, i128, i64, ptr, i64, i8, i8, i8, i8, i8, ptr, i64, i32, %union.anon, %union.anon.0, %union.anon.1, ptr, i32, ptr, ptr, i8 }
%struct.Object = type { ptr, ptr, ptr, i32, ptr }
%union.anon = type { %struct.QTailQLink }
%struct.QTailQLink = type { ptr, ptr }
%union.anon.0 = type { %struct.QTailQLink }
%union.anon.1 = type { %struct.QTailQLink }
%struct.VFIOPCIDevice = type { %struct.PCIDevice, %struct.VFIODevice, %struct.VFIOINTx, i32, ptr, i64, i32, i64, ptr, i32, ptr, ptr, i32, i32, [6 x %struct.VFIOBAR], ptr, ptr, %struct.PCIHostDeviceAddress, %struct.QemuUUID, %struct.EventNotifier, %struct.EventNotifier, ptr, i32, i32, i32, i32, i32, i32, i32, i32, i32, i32, i32, i8, i8, i8, i8, i8, i8, i8, i8, i8, i8, i8, i8, i8, i8, i32, i8, i8, ptr, %struct.Notifier }
%struct.PCIDevice = type { %struct.DeviceState, i8, i8, ptr, ptr, ptr, ptr, ptr, i32, %struct.PCIReqIDCache, [64 x i8], [7 x %struct.PCIIORegion], %struct.AddressSpace, %struct.MemoryRegion, %struct.MemoryRegion, ptr, ptr, [3 x ptr], i8, i8, i32, i8, i32, ptr, ptr, ptr, ptr, ptr, ptr, %struct.MemoryRegion, %struct.MemoryRegion, %struct.MemoryRegion, ptr, i8, i32, i8, %struct.PCIExpressDevice, ptr, ptr, i32, i8, %struct.MemoryRegion, i32, ptr, ptr, ptr, ptr, ptr, i32 }
%struct.DeviceState = type { %struct.Object, ptr, ptr, i8, i8, i64, ptr, i32, i8, ptr, %struct.NamedGPIOListHead, %struct.NamedClockListHead, %struct.BusStateHead, i32, i32, i32, %struct.ResettableState, ptr, %struct.MemReentrancyGuard }
%struct.NamedGPIOListHead = type { ptr }
%struct.NamedClockListHead = type { ptr }
%struct.BusStateHead = type { ptr }
%struct.ResettableState = type { i32, i8, i8 }
%struct.MemReentrancyGuard = type { i8 }
%struct.PCIReqIDCache = type { ptr, i32 }
%struct.PCIIORegion = type { i64, i64, i8, ptr, ptr }
%struct.AddressSpace = type { %struct.rcu_head, ptr, ptr, ptr, i32, i32, ptr, %union.anon.4, %union.anon.5 }
%struct.rcu_head = type { ptr, ptr }
%union.anon.4 = type { %struct.QTailQLink }
%union.anon.5 = type { %struct.QTailQLink }
%struct.PCIExpressDevice = type { i8, i8, i8, i16, %struct.PCIEAERLog, i16, i16, i16, %struct.PCIESriovPF, %struct.PCIESriovVF }
%struct.PCIEAERLog = type { i16, i16, ptr }
%struct.PCIESriovPF = type { i16, [7 x i8], ptr, ptr }
%struct.PCIESriovVF = type { ptr, i16 }
%struct.VFIODevice = type { %struct.anon.6, %struct.anon.7, %struct.anon.8, ptr, ptr, ptr, ptr, ptr, i32, i32, i8, i8, i8, i8, i32, ptr, i32, i32, i32, ptr, ptr, i32, i8, i8 }
%struct.anon.6 = type { ptr, ptr }
%struct.anon.7 = type { ptr, ptr }
%struct.anon.8 = type { ptr, ptr }
%struct.VFIOINTx = type { i8, i8, i8, %struct.EventNotifier, %struct.EventNotifier, %struct.PCIINTxRoute, i32, ptr }
%struct.PCIINTxRoute = type { i32, i32 }
%struct.VFIOBAR = type { %struct.VFIORegion, ptr, i64, i8, i8, i8, %struct.anon.9 }
%struct.VFIORegion = type { ptr, i64, ptr, i64, i32, i32, ptr, i8 }
%struct.anon.9 = type { ptr }
%struct.PCIHostDeviceAddress = type { i32, i32, i32, i32 }
%struct.QemuUUID = type { %union.anon.10 }
%union.anon.10 = type { %struct.anon.11 }
%struct.anon.11 = type { i32, i16, i16, i8, i8, [6 x i8] }
%struct.EventNotifier = type { i32, i32, i8 }
%struct.Notifier = type { ptr, %struct.anon.12 }
%struct.anon.12 = type { ptr, ptr }

@.str.203 = private unnamed_addr constant [15 x i8] c"%s base BAR %d\00", align 1
@.str.204 = private unnamed_addr constant [50 x i8] c"Failed to mmap %s BAR %d. Performance may be slow\00", align 1

; Function Attrs: nounwind sspstrong uwtable
define internal void @vfio_bar_register(ptr noundef %vdev, i32 noundef %nr) #0 {
entry:
  %vdev.addr = alloca ptr, align 8
  %nr.addr = alloca i32, align 4
  %bar = alloca ptr, align 8
  %name = alloca ptr, align 8
  store ptr %vdev, ptr %vdev.addr, align 8
  store i32 %nr, ptr %nr.addr, align 4
  %0 = load ptr, ptr %vdev.addr, align 8
  %bars = getelementptr inbounds %struct.VFIOPCIDevice, ptr %0, i32 0, i32 14
  %1 = load i32, ptr %nr.addr, align 4
  %idxprom = sext i32 %1 to i64
  %arrayidx = getelementptr [6 x %struct.VFIOBAR], ptr %bars, i64 0, i64 %idxprom
  store ptr %arrayidx, ptr %bar, align 8
  %2 = load ptr, ptr %bar, align 8
  %size = getelementptr inbounds %struct.VFIOBAR, ptr %2, i32 0, i32 2
  %3 = load i64, ptr %size, align 8
  %tobool = icmp ne i64 %3, 0
  br i1 %tobool, label %if.end, label %if.then

if.then:                                          ; preds = %entry
  br label %return

if.end:                                           ; preds = %entry
  %call = call noalias ptr @g_malloc0_n(i64 noundef 1, i64 noundef 272) #15
  %4 = load ptr, ptr %bar, align 8
  %mr = getelementptr inbounds %struct.VFIOBAR, ptr %4, i32 0, i32 1
  store ptr %call, ptr %mr, align 8
  %5 = load ptr, ptr %vdev.addr, align 8
  %vbasedev = getelementptr inbounds %struct.VFIOPCIDevice, ptr %5, i32 0, i32 1
  %name1 = getelementptr inbounds %struct.VFIODevice, ptr %vbasedev, i32 0, i32 6
  %6 = load ptr, ptr %name1, align 8
  %7 = load i32, ptr %nr.addr, align 4
  %call2 = call noalias ptr (ptr, ...) @g_strdup_printf(ptr noundef @.str.203, ptr noundef %6, i32 noundef %7)
  store ptr %call2, ptr %name, align 8
  %8 = load ptr, ptr %bar, align 8
  %mr3 = getelementptr inbounds %struct.VFIOBAR, ptr %8, i32 0, i32 1
  %9 = load ptr, ptr %mr3, align 8
  %10 = load ptr, ptr %vdev.addr, align 8
  %11 = load ptr, ptr %name, align 8
  %12 = load ptr, ptr %bar, align 8
  %size4 = getelementptr inbounds %struct.VFIOBAR, ptr %12, i32 0, i32 2
  %13 = load i64, ptr %size4, align 8
  call void @memory_region_init_io(ptr noundef %9, ptr noundef %10, ptr noundef null, ptr noundef null, ptr noundef %11, i64 noundef %13)
  %14 = load ptr, ptr %name, align 8
  call void @g_free(ptr noundef %14)
  %15 = load ptr, ptr %bar, align 8
  %region = getelementptr inbounds %struct.VFIOBAR, ptr %15, i32 0, i32 0
  %size5 = getelementptr inbounds %struct.VFIORegion, ptr %region, i32 0, i32 3
  %16 = load i64, ptr %size5, align 8
  %tobool6 = icmp ne i64 %16, 0
  br i1 %tobool6, label %if.then7, label %if.end17

if.then7:                                         ; preds = %if.end
  %17 = load ptr, ptr %bar, align 8
  %mr8 = getelementptr inbounds %struct.VFIOBAR, ptr %17, i32 0, i32 1
  %18 = load ptr, ptr %mr8, align 8
  %19 = load ptr, ptr %bar, align 8
  %region9 = getelementptr inbounds %struct.VFIOBAR, ptr %19, i32 0, i32 0
  %mem = getelementptr inbounds %struct.VFIORegion, ptr %region9, i32 0, i32 2
  %20 = load ptr, ptr %mem, align 8
  call void @memory_region_add_subregion(ptr noundef %18, i64 noundef 0, ptr noundef %20)
  %21 = load ptr, ptr %bar, align 8
  %region10 = getelementptr inbounds %struct.VFIOBAR, ptr %21, i32 0, i32 0
  %call11 = call i32 @vfio_region_mmap(ptr noundef %region10)
  %tobool12 = icmp ne i32 %call11, 0
  br i1 %tobool12, label %if.then13, label %if.end16

if.then13:                                        ; preds = %if.then7
  %22 = load ptr, ptr %vdev.addr, align 8
  %vbasedev14 = getelementptr inbounds %struct.VFIOPCIDevice, ptr %22, i32 0, i32 1
  %name15 = getelementptr inbounds %struct.VFIODevice, ptr %vbasedev14, i32 0, i32 6
  %23 = load ptr, ptr %name15, align 8
  %24 = load i32, ptr %nr.addr, align 4
  call void (ptr, ...) @error_report(ptr noundef @.str.204, ptr noundef %23, i32 noundef %24)
  br label %if.end16

if.end16:                                         ; preds = %if.then13, %if.then7
  br label %if.end17

if.end17:                                         ; preds = %if.end16, %if.end
  %25 = load ptr, ptr %vdev.addr, align 8
  %pdev = getelementptr inbounds %struct.VFIOPCIDevice, ptr %25, i32 0, i32 0
  %26 = load i32, ptr %nr.addr, align 4
  %27 = load ptr, ptr %bar, align 8
  %type = getelementptr inbounds %struct.VFIOBAR, ptr %27, i32 0, i32 3
  %28 = load i8, ptr %type, align 8
  %29 = load ptr, ptr %bar, align 8
  %mr18 = getelementptr inbounds %struct.VFIOBAR, ptr %29, i32 0, i32 1
  %30 = load ptr, ptr %mr18, align 8
  call void @pci_register_bar(ptr noundef %pdev, i32 noundef %26, i8 noundef zeroext %28, ptr noundef %30)
  br label %return

return:                                           ; preds = %if.end17, %if.then
  ret void
}

; Function Attrs: nounwind sspstrong uwtable
define internal void @vfio_bars_register(ptr noundef %vdev) #0 {
entry:
  %vdev.addr = alloca ptr, align 8
  %i = alloca i32, align 4
  store ptr %vdev, ptr %vdev.addr, align 8
  store i32 0, ptr %i, align 4
  br label %for.cond

for.cond:                                         ; preds = %for.inc, %entry
  %0 = load i32, ptr %i, align 4
  %cmp = icmp slt i32 %0, 6
  br i1 %cmp, label %for.body, label %for.end

for.body:                                         ; preds = %for.cond
  %1 = load ptr, ptr %vdev.addr, align 8
  %2 = load i32, ptr %i, align 4
  call void @vfio_bar_register(ptr noundef %1, i32 noundef %2)
  br label %for.inc

for.inc:                                          ; preds = %for.body
  %3 = load i32, ptr %i, align 4
  %inc = add i32 %3, 1
  store i32 %inc, ptr %i, align 4
  br label %for.cond, !llvm.loop !32

for.end:                                          ; preds = %for.cond
  ret void
}