; Function Attrs: nounwind sspstrong uwtable
define internal fastcc void @vfio_bars_register(ptr noundef %vdev) unnamed_addr #0 {
entry:
  %bars.i = getelementptr inbounds nuw i8, ptr %vdev, i64 2888
  %name1.i = getelementptr inbounds nuw i8, ptr %vdev, i64 2680
  br label %for.body

for.body:                                         ; preds = %entry, %vfio_bar_register.exit
  %indvars.iv = phi i64 [ 0, %entry ], [ %indvars.iv.next, %vfio_bar_register.exit ]
  %arrayidx.i = getelementptr [6 x %struct.VFIOBAR], ptr %bars.i, i64 0, i64 %indvars.iv
  %size.i = getelementptr inbounds nuw i8, ptr %arrayidx.i, i64 64
  %0 = load i64, ptr %size.i, align 8
  %tobool.not.i = icmp eq i64 %0, 0
  br i1 %tobool.not.i, label %vfio_bar_register.exit, label %if.end.i

if.end.i:                                         ; preds = %for.body
  %call.i = tail call noalias dereferenceable_or_null(272) ptr @g_malloc0_n(i64 noundef 1, i64 noundef 272) #25
  %mr.i = getelementptr inbounds nuw i8, ptr %arrayidx.i, i64 56
  store ptr %call.i, ptr %mr.i, align 8
  %1 = load ptr, ptr %name1.i, align 8
  %2 = trunc nuw nsw i64 %indvars.iv to i32
  %call2.i = tail call noalias ptr (ptr, ...) @g_strdup_printf(ptr noundef nonnull @.str.203, ptr noundef %1, i32 noundef range(i32 -2147483648, 6) %2) #23
  %3 = load ptr, ptr %mr.i, align 8
  %4 = load i64, ptr %size.i, align 8
  tail call void @memory_region_init_io(ptr noundef %3, ptr noundef nonnull %vdev, ptr noundef null, ptr noundef null, ptr noundef %call2.i, i64 noundef %4) #23
  tail call void @g_free(ptr noundef %call2.i) #23
  %size5.i = getelementptr inbounds nuw i8, ptr %arrayidx.i, i64 24
  %5 = load i64, ptr %size5.i, align 8
  %tobool6.not.i = icmp eq i64 %5, 0
  br i1 %tobool6.not.i, label %if.end17.i, label %if.then7.i

if.then7.i:                                       ; preds = %if.end.i
  %6 = load ptr, ptr %mr.i, align 8
  %mem.i = getelementptr inbounds nuw i8, ptr %arrayidx.i, i64 16
  %7 = load ptr, ptr %mem.i, align 8
  tail call void @memory_region_add_subregion(ptr noundef %6, i64 noundef 0, ptr noundef %7) #23
  %call11.i = tail call i32 @vfio_region_mmap(ptr noundef %arrayidx.i) #23
  %tobool12.not.i = icmp eq i32 %call11.i, 0
  br i1 %tobool12.not.i, label %if.end17.i, label %if.then13.i

if.then13.i:                                      ; preds = %if.then7.i
  %8 = load ptr, ptr %name1.i, align 8
  tail call void (ptr, ...) @error_report(ptr noundef nonnull @.str.204, ptr noundef %8, i32 noundef range(i32 -2147483648, 6) %2) #23
  br label %if.end17.i

if.end17.i:                                       ; preds = %if.then13.i, %if.then7.i, %if.end.i
  %type.i = getelementptr inbounds nuw i8, ptr %arrayidx.i, i64 72
  %9 = load i8, ptr %type.i, align 8
  %10 = load ptr, ptr %mr.i, align 8
  tail call void @pci_register_bar(ptr noundef nonnull %vdev, i32 noundef range(i32 -2147483648, 6) %2, i8 noundef zeroext %9, ptr noundef %10) #23
  br label %vfio_bar_register.exit

vfio_bar_register.exit:                           ; preds = %for.body, %if.end17.i
  %indvars.iv.next = add nuw nsw i64 %indvars.iv, 1
  %exitcond.not = icmp eq i64 %indvars.iv.next, 6
  br i1 %exitcond.not, label %for.end, label %for.body, !llvm.loop !36

for.end:                                          ; preds = %vfio_bar_register.exit
  ret void
}